; Function Attrs: mustprogress nounwind uwtable
define internal void @_ZN7testing8internal26CartesianProductGenerator2IN2cv5Size_IiEEN11opencv_test12_GLOBAL__N_112CvtModeBayerEED2Ev(ptr noundef nonnull align 8 dereferenceable(40) initializes((0, 8)) %0) unnamed_addr #12 align 2 personality ptr @__gxx_personality_v0 {
  store ptr getelementptr inbounds nuw inrange(-16, 32) (i8, ptr @_ZTVN7testing8internal26CartesianProductGenerator2IN2cv5Size_IiEEN11opencv_test12_GLOBAL__N_112CvtModeBayerEEE, i64 16), ptr %0, align 8, !tbaa !19
  %2 = getelementptr inbounds nuw i8, ptr %0, i64 24
  %3 = getelementptr inbounds nuw i8, ptr %0, i64 32
  invoke void @_ZN7testing8internal9MutexBase4LockEv(ptr noundef nonnull align 8 dereferenceable(56) @_ZN7testing8internal18g_linked_ptr_mutexE)
          to label %.noexc.i.i unwind label %19

.noexc.i.i:                                       ; preds = %1
  %4 = load ptr, ptr %3, align 8, !tbaa !29
  %5 = icmp eq ptr %4, %3
  br i1 %5, label %8, label %.preheader.i.i.i.i

.preheader.i.i.i.i:                               ; preds = %.noexc.i.i, %.preheader.i.i.i.i
  %.0.i.i.i.i = phi ptr [ %6, %.preheader.i.i.i.i ], [ %4, %.noexc.i.i ]
  %6 = load ptr, ptr %.0.i.i.i.i, align 8, !tbaa !29
  %.not.i.i.i.i = icmp eq ptr %6, %3
  br i1 %.not.i.i.i.i, label %7, label %.preheader.i.i.i.i, !llvm.loop !123

7:                                                ; preds = %.preheader.i.i.i.i
  store ptr %4, ptr %.0.i.i.i.i, align 8, !tbaa !29
  br label %8

8:                                                ; preds = %7, %.noexc.i.i
  invoke void @_ZN7testing8internal9MutexBase6UnlockEv(ptr noundef nonnull align 8 dereferenceable(56) @_ZN7testing8internal18g_linked_ptr_mutexE)
          to label %_ZN7testing8internal19linked_ptr_internal6departEv.exit.i.i.i unwind label %9

9:                                                ; preds = %8
  %10 = landingpad { ptr, i32 }
          catch ptr null
  %11 = extractvalue { ptr, i32 } %10, 0
  tail call void @__clang_call_terminate(ptr %11) #32
  unreachable

_ZN7testing8internal19linked_ptr_internal6departEv.exit.i.i.i: ; preds = %8
  br i1 %5, label %12, label %_ZN7testing8internal14ParamGeneratorIN11opencv_test12_GLOBAL__N_112CvtModeBayerEED2Ev.exit

12:                                               ; preds = %_ZN7testing8internal19linked_ptr_internal6departEv.exit.i.i.i
  %13 = load ptr, ptr %2, align 8, !tbaa !302
  %14 = icmp eq ptr %13, null
  br i1 %14, label %_ZN7testing8internal14ParamGeneratorIN11opencv_test12_GLOBAL__N_112CvtModeBayerEED2Ev.exit, label %15

15:                                               ; preds = %12
  %16 = load ptr, ptr %13, align 8, !tbaa !19
  %17 = getelementptr inbounds nuw i8, ptr %16, i64 8
  %18 = load ptr, ptr %17, align 8
  tail call void %18(ptr noundef nonnull align 8 dereferenceable(8) %13) #30
  br label %_ZN7testing8internal14ParamGeneratorIN11opencv_test12_GLOBAL__N_112CvtModeBayerEED2Ev.exit

19:                                               ; preds = %1
  %20 = landingpad { ptr, i32 }
          catch ptr null
  %21 = extractvalue { ptr, i32 } %20, 0
  tail call void @__clang_call_terminate(ptr %21) #32
  unreachable

_ZN7testing8internal14ParamGeneratorIN11opencv_test12_GLOBAL__N_112CvtModeBayerEED2Ev.exit: ; preds = %_ZN7testing8internal19linked_ptr_internal6departEv.exit.i.i.i, %12, %15
  %22 = getelementptr inbounds nuw i8, ptr %0, i64 8
  %23 = getelementptr inbounds nuw i8, ptr %0, i64 16
  invoke void @_ZN7testing8internal9MutexBase4LockEv(ptr noundef nonnull align 8 dereferenceable(56) @_ZN7testing8internal18g_linked_ptr_mutexE)
          to label %.noexc.i.i1 unwind label %39

.noexc.i.i1:                                      ; preds = %_ZN7testing8internal14ParamGeneratorIN11opencv_test12_GLOBAL__N_112CvtModeBayerEED2Ev.exit
  %24 = load ptr, ptr %23, align 8, !tbaa !29
  %25 = icmp eq ptr %24, %23
  br i1 %25, label %28, label %.preheader.i.i.i.i2

.preheader.i.i.i.i2:                              ; preds = %.noexc.i.i1, %.preheader.i.i.i.i2
  %.0.i.i.i.i3 = phi ptr [ %26, %.preheader.i.i.i.i2 ], [ %24, %.noexc.i.i1 ]
  %26 = load ptr, ptr %.0.i.i.i.i3, align 8, !tbaa !29
  %.not.i.i.i.i4 = icmp eq ptr %26, %23
  br i1 %.not.i.i.i.i4, label %27, label %.preheader.i.i.i.i2, !llvm.loop !123

27:                                               ; preds = %.preheader.i.i.i.i2
  store ptr %24, ptr %.0.i.i.i.i3, align 8, !tbaa !29
  br label %28

28:                                               ; preds = %27, %.noexc.i.i1
  invoke void @_ZN7testing8internal9MutexBase6UnlockEv(ptr noundef nonnull align 8 dereferenceable(56) @_ZN7testing8internal18g_linked_ptr_mutexE)
          to label %_ZN7testing8internal19linked_ptr_internal6departEv.exit.i.i.i5 unwind label %29

29:                                               ; preds = %28
  %30 = landingpad { ptr, i32 }
          catch ptr null
  %31 = extractvalue { ptr, i32 } %30, 0
  tail call void @__clang_call_terminate(ptr %31) #32
  unreachable

_ZN7testing8internal19linked_ptr_internal6departEv.exit.i.i.i5: ; preds = %28
  br i1 %25, label %32, label %_ZN7testing8internal14ParamGeneratorIN2cv5Size_IiEEED2Ev.exit

32:                                               ; preds = %_ZN7testing8internal19linked_ptr_internal6departEv.exit.i.i.i5
  %33 = load ptr, ptr %22, align 8, !tbaa !116
  %34 = icmp eq ptr %33, null
  br i1 %34, label %_ZN7testing8internal14ParamGeneratorIN2cv5Size_IiEEED2Ev.exit, label %35

35:                                               ; preds = %32
  %36 = load ptr, ptr %33, align 8, !tbaa !19
  %37 = getelementptr inbounds nuw i8, ptr %36, i64 8
  %38 = load ptr, ptr %37, align 8
  tail call void %38(ptr noundef nonnull align 8 dereferenceable(8) %33) #30
  br label %_ZN7testing8internal14ParamGeneratorIN2cv5Size_IiEEED2Ev.exit

39:                                               ; preds = %_ZN7testing8internal14ParamGeneratorIN11opencv_test12_GLOBAL__N_112CvtModeBayerEED2Ev.exit
  %40 = landingpad { ptr, i32 }
          catch ptr null
  %41 = extractvalue { ptr, i32 } %40, 0
  tail call void @__clang_call_terminate(ptr %41) #32
  unreachable

_ZN7testing8internal14ParamGeneratorIN2cv5Size_IiEEED2Ev.exit: ; preds = %_ZN7testing8internal19linked_ptr_internal6departEv.exit.i.i.i5, %32, %35
  ret void
}